Certificate:
    Data:
        Version: 3 (0x2)
        Serial Number:
            36:44:c2:2d:8f:52:c8:0c:59:86:79:0f:55:9a:ee:f1
        Signature Algorithm: sha256WithRSAEncryption
        Issuer: CN=My-VPN-CA
        Validity
            Not Before: Jul  8 08:21:31 2025 GMT
            Not After : Oct 11 08:21:31 2027 GMT
        Subject: CN=client1.domain.tld
        Subject Public Key Info:
            Public Key Algorithm: rsaEncryption
                Public-Key: (2048 bit)
                Modulus:
                    00:e5:36:7f:5b:ac:c5:bc:ba:75:26:77:93:fe:2b:
                    f9:1f:6d:d8:cd:de:15:a2:8c:32:26:07:95:86:f8:
                    b0:6b:ed:09:79:e6:a3:84:00:ed:06:89:59:42:d7:
                    35:d9:37:93:f3:87:c0:30:c5:57:a1:27:b2:88:6b:
                    eb:e6:cc:7a:5b:86:72:0b:64:4d:e7:43:b3:f9:a4:
                    b2:9f:ca:16:72:13:82:fd:dc:3e:83:64:c9:b3:b3:
                    76:f9:f9:a9:d5:b6:7a:86:4d:c6:db:17:09:1a:2d:
                    ad:14:c1:5b:76:ca:56:96:5c:14:12:f3:7b:70:b0:
                    1b:a0:b1:85:23:f7:54:99:4f:81:db:36:7f:b2:72:
                    d7:e8:f2:4e:bc:e6:c3:ac:06:f8:b3:94:fe:fb:2d:
                    63:ec:30:7a:40:81:cc:24:22:78:16:35:28:36:07:
                    0c:e0:51:09:d6:52:06:20:b9:4f:80:e8:2e:b9:39:
                    2b:5f:d0:c6:80:75:2c:1f:ba:fb:a6:60:59:d6:ec:
                    09:22:40:a5:88:b1:5b:86:4c:d5:94:9c:cf:8d:c3:
                    eb:4d:9f:c7:e7:aa:52:ea:72:c0:88:62:b5:b0:9d:
                    b0:19:6a:a0:ea:35:2e:6a:0f:36:59:0e:0d:37:0b:
                    10:bf:96:45:13:61:df:2c:19:fb:91:39:af:29:9e:
                    97:af
                Exponent: 65537 (0x10001)
        X509v3 extensions:
            X509v3 Basic Constraints: 
                CA:FALSE
            X509v3 Subject Key Identifier: 
                60:EA:CB:26:B0:D5:44:D5:59:D6:C8:03:72:C0:B4:20:4B:A4:D7:06
            X509v3 Authority Key Identifier: 
                keyid:88:9C:F4:7D:93:60:2B:43:92:0E:A2:15:DD:06:D6:D5:C1:5A:8F:47
                DirName:/CN=My-VPN-CA
                serial:27:4D:65:07:B0:EA:41:6E:1F:8B:AF:3C:8B:29:C2:4A:55:E3:40:61
            X509v3 Extended Key Usage: 
                TLS Web Client Authentication
            X509v3 Key Usage: 
                Digital Signature
    Signature Algorithm: sha256WithRSAEncryption
    Signature Value:
        6b:ba:97:50:ee:7a:d9:4a:09:d3:2c:c3:52:a3:26:c3:f9:4c:
        ab:b0:dd:e3:6b:a3:c5:64:31:90:7d:f7:8c:de:4e:5a:97:a9:
        d7:fa:40:a4:ab:36:71:af:a9:42:d3:e6:96:10:7a:c0:b6:6a:
        23:0d:f2:2e:2e:b6:ad:49:d2:eb:39:3f:3b:31:ac:7f:5f:a9:
        71:12:41:fe:21:5c:c4:6a:5b:ce:c2:12:95:0f:07:0c:be:51:
        54:fc:1f:73:1c:c1:0e:8d:36:23:3d:09:1b:91:48:d1:ae:fe:
        0a:42:1f:9f:f6:b1:53:1a:4c:e6:cd:1b:dc:b8:a9:e1:98:ca:
        37:c8:2c:08:c8:da:1f:49:6a:90:7e:e1:a4:c4:f8:88:53:00:
        b7:ef:ba:29:79:6c:46:6b:c7:d3:a0:39:e6:08:53:00:a2:2e:
        1f:10:98:b2:85:ea:e9:77:cc:38:cb:54:75:b3:92:1a:4e:82:
        84:60:6b:fa:09:8c:d8:ab:0e:4a:73:49:d7:57:74:9f:f5:5a:
        86:c9:c2:be:e1:ce:db:52:a9:7b:9f:19:f3:72:5e:2d:97:92:
        06:e5:3f:d9:b6:dc:21:1c:6e:e1:82:f9:d1:d1:cf:99:94:09:
        45:2c:e5:2b:e0:cf:d2:4b:d6:1f:a7:8d:66:0e:f4:b4:bd:77:
        6e:7e:36:2a
-----BEGIN CERTIFICATE-----
MIIDXDCCAkSgAwIBAgIQNkTCLY9SyAxZhnkPVZru8TANBgkqhkiG9w0BAQsFADAU
MRIwEAYDVQQDDAlNeS1WUE4tQ0EwHhcNMjUwNzA4MDgyMTMxWhcNMjcxMDExMDgy
MTMxWjAdMRswGQYDVQQDDBJjbGllbnQxLmRvbWFpbi50bGQwggEiMA0GCSqGSIb3
DQEBAQUAA4IBDwAwggEKAoIBAQDlNn9brMW8unUmd5P+K/kfbdjN3hWijDImB5WG
+LBr7Ql55qOEAO0GiVlC1zXZN5Pzh8AwxVehJ7KIa+vmzHpbhnILZE3nQ7P5pLKf
yhZyE4L93D6DZMmzs3b5+anVtnqGTcbbFwkaLa0UwVt2ylaWXBQS83twsBugsYUj
91SZT4HbNn+yctfo8k685sOsBvizlP77LWPsMHpAgcwkIngWNSg2BwzgUQnWUgYg
uU+A6C65OStf0MaAdSwfuvumYFnW7AkiQKWIsVuGTNWUnM+Nw+tNn8fnqlLqcsCI
YrWwnbAZaqDqNS5qDzZZDg03CxC/lkUTYd8sGfuROa8pnpevAgMBAAGjgaAwgZ0w
CQYDVR0TBAIwADAdBgNVHQ4EFgQUYOrLJrDVRNVZ1sgDcsC0IEuk1wYwTwYDVR0j
BEgwRoAUiJz0fZNgK0OSDqIV3QbW1cFaj0ehGKQWMBQxEjAQBgNVBAMMCU15LVZQ
Ti1DQYIUJ01lB7DqQW4fi688iynCSlXjQGEwEwYDVR0lBAwwCgYIKwYBBQUHAwIw
CwYDVR0PBAQDAgeAMA0GCSqGSIb3DQEBCwUAA4IBAQBrupdQ7nrZSgnTLMNSoybD
+UyrsN3ja6PFZDGQffeM3k5al6nX+kCkqzZxr6lC0+aWEHrAtmojDfIuLratSdLr
OT87Max/X6lxEkH+IVzEalvOwhKVDwcMvlFU/B9zHMEOjTYjPQkbkUjRrv4KQh+f
9rFTGkzmzRvcuKnhmMo3yCwIyNofSWqQfuGkxPiIUwC377opeWxGa8fToDnmCFMA
oi4fEJiyherpd8w4y1R1s5IaToKEYGv6CYzYqw5Kc0nXV3Sf9VqGycK+4c7bUql7
nxnzcl4tl5IG5T/ZttwhHG7hgvnR0c+ZlAlFLOUr4M/SS9Yfp41mDvS0vXdufjYq
-----END CERTIFICATE-----
